; ModuleID = '63/1955.c'
source_filename = "63/1955.c"
target datalayout = "e-m:e-p270:32:32-p271:32:32-p272:64:64-i64:64-f80:128-n8:16:32:64-S128"
target triple = "x86_64-pc-linux-gnu"

@.str = private unnamed_addr constant [6 x i8] c"%d %d\00", align 1
@.str.1 = private unnamed_addr constant [3 x i8] c"%d\00", align 1
@.str.2 = private unnamed_addr constant [4 x i8] c" %d\00", align 1
@.str.3 = private unnamed_addr constant [2 x i8] c"\0A\00", align 1

; Function Attrs: noinline nounwind uwtable
define dso_local i32 @main() #0 {
  %1 = alloca i32, align 4
  %2 = alloca i32, align 4
  %3 = alloca i32, align 4
  %4 = alloca i32, align 4
  %5 = alloca i32, align 4
  %6 = alloca i32, align 4
  %7 = alloca i32, align 4
  %8 = alloca i32, align 4
  %9 = alloca i32, align 4
  %10 = alloca i8*, align 8
  %11 = alloca i64, align 8
  %12 = alloca i64, align 8
  %13 = alloca i64, align 8
  %14 = alloca i64, align 8
  store i32 0, i32* %1, align 4
  %15 = call i32 (i8*, ...) @__isoc99_scanf(i8* getelementptr inbounds ([6 x i8], [6 x i8]* @.str, i64 0, i64 0), i32* %2, i32* %3)
  %16 = load i32, i32* %2, align 4
  %17 = zext i32 %16 to i64
  %18 = load i32, i32* %3, align 4
  %19 = zext i32 %18 to i64
  %20 = call i8* @llvm.stacksave()
  store i8* %20, i8** %10, align 8
  %21 = mul nuw i64 %17, %19
  %22 = alloca i32, i64 %21, align 16
  store i64 %17, i64* %11, align 8
  store i64 %19, i64* %12, align 8
  store i32 1, i32* %6, align 4
  br label %23

23:                                               ; preds = %47, %0
  %24 = load i32, i32* %6, align 4
  %25 = load i32, i32* %2, align 4
  %26 = icmp sle i32 %24, %25
  br i1 %26, label %27, label %50

27:                                               ; preds = %23
  store i32 1, i32* %7, align 4
  br label %28

28:                                               ; preds = %43, %27
  %29 = load i32, i32* %7, align 4
  %30 = load i32, i32* %3, align 4
  %31 = icmp sle i32 %29, %30
  br i1 %31, label %32, label %46

32:                                               ; preds = %28
  %33 = load i32, i32* %6, align 4
  %34 = sub nsw i32 %33, 1
  %35 = sext i32 %34 to i64
  %36 = mul nsw i64 %35, %19
  %37 = getelementptr inbounds i32, i32* %22, i64 %36
  %38 = load i32, i32* %7, align 4
  %39 = sub nsw i32 %38, 1
  %40 = sext i32 %39 to i64
  %41 = getelementptr inbounds i32, i32* %37, i64 %40
  %42 = call i32 (i8*, ...) @__isoc99_scanf(i8* getelementptr inbounds ([3 x i8], [3 x i8]* @.str.1, i64 0, i64 0), i32* %41)
  br label %43

43:                                               ; preds = %32
  %44 = load i32, i32* %7, align 4
  %45 = add nsw i32 %44, 1
  store i32 %45, i32* %7, align 4
  br label %28

46:                                               ; preds = %28
  br label %47

47:                                               ; preds = %46
  %48 = load i32, i32* %6, align 4
  %49 = add nsw i32 %48, 1
  store i32 %49, i32* %6, align 4
  br label %23

50:                                               ; preds = %23
  %51 = call i32 (i8*, ...) @__isoc99_scanf(i8* getelementptr inbounds ([6 x i8], [6 x i8]* @.str, i64 0, i64 0), i32* %4, i32* %5)
  %52 = load i32, i32* %4, align 4
  %53 = zext i32 %52 to i64
  %54 = load i32, i32* %5, align 4
  %55 = zext i32 %54 to i64
  %56 = mul nuw i64 %53, %55
  %57 = alloca i32, i64 %56, align 16
  store i64 %53, i64* %13, align 8
  store i64 %55, i64* %14, align 8
  store i32 1, i32* %6, align 4
  br label %58

58:                                               ; preds = %82, %50
  %59 = load i32, i32* %6, align 4
  %60 = load i32, i32* %4, align 4
  %61 = icmp sle i32 %59, %60
  br i1 %61, label %62, label %85

62:                                               ; preds = %58
  store i32 1, i32* %7, align 4
  br label %63

63:                                               ; preds = %78, %62
  %64 = load i32, i32* %7, align 4
  %65 = load i32, i32* %5, align 4
  %66 = icmp sle i32 %64, %65
  br i1 %66, label %67, label %81

67:                                               ; preds = %63
  %68 = load i32, i32* %6, align 4
  %69 = sub nsw i32 %68, 1
  %70 = sext i32 %69 to i64
  %71 = mul nsw i64 %70, %55
  %72 = getelementptr inbounds i32, i32* %57, i64 %71
  %73 = load i32, i32* %7, align 4
  %74 = sub nsw i32 %73, 1
  %75 = sext i32 %74 to i64
  %76 = getelementptr inbounds i32, i32* %72, i64 %75
  %77 = call i32 (i8*, ...) @__isoc99_scanf(i8* getelementptr inbounds ([3 x i8], [3 x i8]* @.str.1, i64 0, i64 0), i32* %76)
  br label %78

78:                                               ; preds = %67
  %79 = load i32, i32* %7, align 4
  %80 = add nsw i32 %79, 1
  store i32 %80, i32* %7, align 4
  br label %63

81:                                               ; preds = %63
  br label %82

82:                                               ; preds = %81
  %83 = load i32, i32* %6, align 4
  %84 = add nsw i32 %83, 1
  store i32 %84, i32* %6, align 4
  br label %58

85:                                               ; preds = %58
  store i32 1, i32* %6, align 4
  br label %86

86:                                               ; preds = %142, %85
  %87 = load i32, i32* %6, align 4
  %88 = load i32, i32* %2, align 4
  %89 = icmp sle i32 %87, %88
  br i1 %89, label %90, label %145

90:                                               ; preds = %86
  store i32 1, i32* %7, align 4
  br label %91

91:                                               ; preds = %137, %90
  %92 = load i32, i32* %7, align 4
  %93 = load i32, i32* %5, align 4
  %94 = icmp sle i32 %92, %93
  br i1 %94, label %95, label %140

95:                                               ; preds = %91
  store i32 0, i32* %9, align 4
  store i32 1, i32* %8, align 4
  br label %96

96:                                               ; preds = %124, %95
  %97 = load i32, i32* %8, align 4
  %98 = load i32, i32* %4, align 4
  %99 = icmp sle i32 %97, %98
  br i1 %99, label %100, label %127

100:                                              ; preds = %96
  %101 = load i32, i32* %9, align 4
  %102 = load i32, i32* %6, align 4
  %103 = sub nsw i32 %102, 1
  %104 = sext i32 %103 to i64
  %105 = mul nsw i64 %104, %19
  %106 = getelementptr inbounds i32, i32* %22, i64 %105
  %107 = load i32, i32* %8, align 4
  %108 = sub nsw i32 %107, 1
  %109 = sext i32 %108 to i64
  %110 = getelementptr inbounds i32, i32* %106, i64 %109
  %111 = load i32, i32* %110, align 4
  %112 = load i32, i32* %8, align 4
  %113 = sub nsw i32 %112, 1
  %114 = sext i32 %113 to i64
  %115 = mul nsw i64 %114, %55
  %116 = getelementptr inbounds i32, i32* %57, i64 %115
  %117 = load i32, i32* %7, align 4
  %118 = sub nsw i32 %117, 1
  %119 = sext i32 %118 to i64
  %120 = getelementptr inbounds i32, i32* %116, i64 %119
  %121 = load i32, i32* %120, align 4
  %122 = mul nsw i32 %111, %121
  %123 = add nsw i32 %101, %122
  store i32 %123, i32* %9, align 4
  br label %124

124:                                              ; preds = %100
  %125 = load i32, i32* %8, align 4
  %126 = add nsw i32 %125, 1
  store i32 %126, i32* %8, align 4
  br label %96

127:                                              ; preds = %96
  %128 = load i32, i32* %7, align 4
  %129 = icmp eq i32 %128, 1
  br i1 %129, label %130, label %133

130:                                              ; preds = %127
  %131 = load i32, i32* %9, align 4
  %132 = call i32 (i8*, ...) @printf(i8* getelementptr inbounds ([3 x i8], [3 x i8]* @.str.1, i64 0, i64 0), i32 %131)
  br label %136

133:                                              ; preds = %127
  %134 = load i32, i32* %9, align 4
  %135 = call i32 (i8*, ...) @printf(i8* getelementptr inbounds ([4 x i8], [4 x i8]* @.str.2, i64 0, i64 0), i32 %134)
  br label %136

136:                                              ; preds = %133, %130
  br label %137

137:                                              ; preds = %136
  %138 = load i32, i32* %7, align 4
  %139 = add nsw i32 %138, 1
  store i32 %139, i32* %7, align 4
  br label %91

140:                                              ; preds = %91
  %141 = call i32 (i8*, ...) @printf(i8* getelementptr inbounds ([2 x i8], [2 x i8]* @.str.3, i64 0, i64 0))
  br label %142

142:                                              ; preds = %140
  %143 = load i32, i32* %6, align 4
  %144 = add nsw i32 %143, 1
  store i32 %144, i32* %6, align 4
  br label %86

145:                                              ; preds = %86
  %146 = load i8*, i8** %10, align 8
  call void @llvm.stackrestore(i8* %146)
  %147 = load i32, i32* %1, align 4
  ret i32 %147
}

declare dso_local i32 @__isoc99_scanf(i8*, ...) #1

; Function Attrs: nounwind
declare i8* @llvm.stacksave() #2

declare dso_local i32 @printf(i8*, ...) #1

; Function Attrs: nounwind
declare void @llvm.stackrestore(i8*) #2


!llvm.module.flags = !{!0}
!llvm.ident = !{!1}

!0 = !{i32 1, !"wchar_size", i32 4}
!1 = !{!"clang version 10.0.0-4ubuntu1 "}
